Certificate:
    Data:
        Version: 3 (0x2)
        Serial Number: 1 (0x1)
    Signature Algorithm: sha1WithRSAEncryption
        Issuer: C=US, ST=CA, L=SanFrancisco, O=Fort-Funston, OU=testUnit, CN=test/name=EasyRSA/emailAddress=wangguanzzz@gmail.com
        Validity
            Not Before: Aug  7 03:04:30 2019 GMT
            Not After : Aug  4 03:04:30 2029 GMT
        Subject: C=US, ST=CA, L=SanFrancisco, O=Fort-Funston, OU=testUnit, CN=server/name=EasyRSA/emailAddress=wangguanzzz@gmail.com
        Subject Public Key Info:
            Public Key Algorithm: rsaEncryption
                Public-Key: (4096 bit)
                Modulus:
                    00:cd:34:8b:d6:82:1d:d9:9a:67:d6:e3:fd:ab:84:
                    26:2b:84:3d:f7:e0:13:6a:38:11:5b:e5:db:f9:06:
                    67:29:de:2e:a6:b7:c7:f9:8d:b9:f8:be:06:9a:6d:
                    17:6c:b4:9c:3a:8e:1f:57:a8:97:fa:96:c7:ba:5b:
                    cb:ad:f5:25:07:cb:70:92:c6:af:bf:37:0e:30:65:
                    09:57:11:82:9d:90:5c:4c:db:f5:22:09:e2:11:91:
                    87:c7:dd:a5:33:cf:b6:ac:b3:f4:17:68:97:eb:5f:
                    46:fd:ad:af:dc:47:03:e4:a4:a9:2f:d7:ff:22:4f:
                    0d:63:1b:e1:11:02:a6:ea:05:f0:47:45:3a:f6:75:
                    07:12:eb:84:e1:e2:d2:4f:24:15:70:ba:a9:fa:ea:
                    7f:20:db:f3:c6:1d:96:8f:65:f1:f1:fd:3c:82:71:
                    2c:a5:31:07:51:84:98:08:90:7e:76:83:3b:d4:91:
                    f6:22:61:3f:b8:7b:e1:47:6a:39:33:8d:0e:e0:44:
                    bc:80:94:68:2a:86:50:5d:88:6c:48:ab:d7:ec:78:
                    32:84:75:db:0c:5e:a3:91:4e:41:eb:0a:70:7b:1e:
                    29:88:74:f0:8d:3a:e3:5c:ac:6f:9c:38:1d:2c:24:
                    35:d7:17:cd:40:e5:50:21:d1:fd:f3:35:84:36:60:
                    7b:b2:7e:4c:ce:cf:7a:8e:0f:e4:c3:12:a2:a4:a8:
                    60:a8:9e:40:2d:b8:07:d3:51:cc:f9:81:a4:e9:b0:
                    13:a9:d6:00:7d:75:c2:73:5d:74:96:e3:34:21:3b:
                    e9:25:ae:46:e2:c7:fe:da:ea:a8:4f:0e:ce:f6:36:
                    42:2f:75:28:5e:7e:32:ad:ac:8f:82:75:f6:04:12:
                    a1:e6:88:63:6e:f3:16:eb:20:04:22:72:05:42:45:
                    92:59:c5:32:6b:dd:c8:2b:ad:b5:c7:19:0b:4a:c4:
                    36:8c:a2:49:32:6b:2a:e1:b2:2c:06:39:bd:a0:92:
                    01:d7:5c:87:df:47:17:c3:23:e2:e7:9c:dd:0b:28:
                    54:97:42:c7:62:be:a4:69:b8:76:28:b4:e8:86:a9:
                    59:9d:4f:16:04:83:2b:d0:7b:a0:0f:96:62:8e:33:
                    48:d0:71:aa:b9:8d:ef:16:e1:92:57:32:ff:90:b9:
                    27:ed:c2:2c:b2:06:bf:37:85:6a:f5:d2:ee:68:a3:
                    c9:3b:cd:27:d5:b2:7a:33:f9:eb:19:de:7a:b5:d0:
                    f5:24:89:77:fd:8b:7e:7b:71:91:89:f0:5e:bf:23:
                    08:35:f1:3c:dd:e7:ca:b8:37:f5:8b:e8:44:bd:3a:
                    ed:1b:cb:3a:f5:0f:84:0e:1d:c2:a1:9e:fc:b8:e4:
                    e8:dc:f5
                Exponent: 65537 (0x10001)
        X509v3 extensions:
            X509v3 Basic Constraints: 
                CA:FALSE
            Netscape Cert Type: 
                SSL Server
            Netscape Comment: 
                Easy-RSA Generated Server Certificate
            X509v3 Subject Key Identifier: 
                26:7B:B6:C5:7D:80:0A:48:49:7B:7F:54:D8:B0:72:17:A8:08:69:B3
            X509v3 Authority Key Identifier: 
                keyid:3A:49:14:6B:F8:18:F3:E5:08:E1:EA:93:2E:11:91:04:6D:28:D2:27
                DirName:/C=US/ST=CA/L=SanFrancisco/O=Fort-Funston/OU=testUnit/CN=test/name=EasyRSA/emailAddress=wangguanzzz@gmail.com
                serial:B4:5A:C0:04:E9:CC:6A:02

            X509v3 Extended Key Usage: 
                TLS Web Server Authentication
            X509v3 Key Usage: 
                Digital Signature, Key Encipherment
    Signature Algorithm: sha1WithRSAEncryption
         7e:b8:20:f1:79:4d:a2:ea:29:cc:86:18:03:5a:07:d0:41:a6:
         d1:08:ff:c5:63:a9:a0:2f:d5:d7:d9:62:2d:ed:8d:45:67:12:
         61:f1:15:2c:eb:3f:d2:c5:98:e3:2e:6f:74:5b:1d:19:f4:6d:
         61:cc:62:27:fd:b1:48:91:db:4c:a4:b8:ac:1c:92:48:b3:97:
         f4:91:2b:dd:bd:eb:1f:d4:ea:a0:42:65:34:ab:0b:2d:a1:10:
         af:45:97:14:5a:7b:3f:7e:aa:86:be:3b:c3:78:9a:7d:fc:ea:
         f6:70:56:f6:44:00:26:ce:73:dd:b4:d5:a8:2b:4f:0c:89:4c:
         fe:60:e7:15:a0:3f:cd:18:18:7b:28:24:73:c4:96:b7:42:ec:
         dc:8a:55:7a:ac:4e:40:fd:79:17:6f:e2:c1:a0:6e:39:14:0a:
         14:7e:50:ee:c7:7f:7a:84:e1:5b:06:17:2b:c2:f5:f7:51:6d:
         b2:f6:c6:a6:72:58:76:8a:41:4e:e8:26:8e:d6:f6:0b:14:51:
         04:19:19:95:38:e9:24:53:8c:fb:67:38:0a:4b:6c:30:fd:27:
         3b:61:27:c5:8d:e4:90:b7:78:ce:cb:5d:fc:82:4d:5e:b2:34:
         4b:09:ff:ee:00:59:5d:a8:c8:7f:43:e5:b7:33:ab:f6:26:46:
         bd:bf:b8:c6:8c:ee:3d:29:45:67:49:d7:f5:4f:ef:9f:c0:04:
         28:30:95:0b:1b:0d:25:69:07:c0:0d:a9:a7:2b:aa:c3:0b:b6:
         c9:45:50:ae:3f:cb:20:d3:f1:8b:50:c7:57:b9:29:a9:dc:74:
         09:ca:fe:71:ab:a3:8c:f6:ea:5b:4c:4b:7d:19:5b:f5:44:d8:
         e5:04:85:e9:87:9e:f6:93:18:cb:28:1a:bd:9f:d2:d0:1f:2a:
         2b:99:db:bc:da:b3:63:f8:f6:e6:63:b6:6c:0a:4c:85:07:84:
         fe:24:30:81:6a:d3:e6:c5:da:a0:e8:93:e0:02:03:f4:9f:a6:
         02:cf:30:0f:e2:a6:70:1f:ac:74:31:c0:b4:12:69:e5:54:31:
         45:33:3c:68:47:9f:26:d9:ea:48:5b:34:0f:06:30:ac:f5:d1:
         3a:3d:54:3a:36:ee:53:27:16:23:d6:46:17:a9:14:41:b1:9b:
         ed:f4:10:cb:cc:dd:59:b2:f7:b5:80:ff:83:da:62:15:82:07:
         63:d9:73:bc:60:8f:3d:15:00:42:a6:9a:c2:fd:8f:67:0c:69:
         42:27:26:49:0c:d6:af:d7:d6:95:20:cf:f2:68:fa:50:d5:6d:
         03:90:a4:4a:3f:f2:03:a3:81:4b:5d:ee:43:11:60:bc:b5:ae:
         de:68:1b:45:92:37:6a:dc
-----BEGIN CERTIFICATE-----
MIIHODCCBSCgAwIBAgIBATANBgkqhkiG9w0BAQUFADCBojELMAkGA1UEBhMCVVMx
CzAJBgNVBAgTAkNBMRUwEwYDVQQHEwxTYW5GcmFuY2lzY28xFTATBgNVBAoTDEZv
cnQtRnVuc3RvbjERMA8GA1UECxMIdGVzdFVuaXQxDTALBgNVBAMTBHRlc3QxEDAO
BgNVBCkTB0Vhc3lSU0ExJDAiBgkqhkiG9w0BCQEWFXdhbmdndWFuenp6QGdtYWls
LmNvbTAeFw0xOTA4MDcwMzA0MzBaFw0yOTA4MDQwMzA0MzBaMIGkMQswCQYDVQQG
EwJVUzELMAkGA1UECBMCQ0ExFTATBgNVBAcTDFNhbkZyYW5jaXNjbzEVMBMGA1UE
ChMMRm9ydC1GdW5zdG9uMREwDwYDVQQLEwh0ZXN0VW5pdDEPMA0GA1UEAxMGc2Vy
dmVyMRAwDgYDVQQpEwdFYXN5UlNBMSQwIgYJKoZIhvcNAQkBFhV3YW5nZ3Vhbnp6
ekBnbWFpbC5jb20wggIiMA0GCSqGSIb3DQEBAQUAA4ICDwAwggIKAoICAQDNNIvW
gh3ZmmfW4/2rhCYrhD334BNqOBFb5dv5Bmcp3i6mt8f5jbn4vgaabRdstJw6jh9X
qJf6lse6W8ut9SUHy3CSxq+/Nw4wZQlXEYKdkFxM2/UiCeIRkYfH3aUzz7ass/QX
aJfrX0b9ra/cRwPkpKkv1/8iTw1jG+ERAqbqBfBHRTr2dQcS64Th4tJPJBVwuqn6
6n8g2/PGHZaPZfHx/TyCcSylMQdRhJgIkH52gzvUkfYiYT+4e+FHajkzjQ7gRLyA
lGgqhlBdiGxIq9fseDKEddsMXqORTkHrCnB7HimIdPCNOuNcrG+cOB0sJDXXF81A
5VAh0f3zNYQ2YHuyfkzOz3qOD+TDEqKkqGConkAtuAfTUcz5gaTpsBOp1gB9dcJz
XXSW4zQhO+klrkbix/7a6qhPDs72NkIvdShefjKtrI+CdfYEEqHmiGNu8xbrIAQi
cgVCRZJZxTJr3cgrrbXHGQtKxDaMokkyayrhsiwGOb2gkgHXXIffRxfDI+LnnN0L
KFSXQsdivqRpuHYotOiGqVmdTxYEgyvQe6APlmKOM0jQcaq5je8W4ZJXMv+QuSft
wiyyBr83hWr10u5oo8k7zSfVsnoz+esZ3nq10PUkiXf9i357cZGJ8F6/Iwg18Tzd
58q4N/WL6ES9Ou0byzr1D4QOHcKhnvy45Ojc9QIDAQABo4IBczCCAW8wCQYDVR0T
BAIwADARBglghkgBhvhCAQEEBAMCBkAwNAYJYIZIAYb4QgENBCcWJUVhc3ktUlNB
IEdlbmVyYXRlZCBTZXJ2ZXIgQ2VydGlmaWNhdGUwHQYDVR0OBBYEFCZ7tsV9gApI
SXt/VNiwcheoCGmzMIHXBgNVHSMEgc8wgcyAFDpJFGv4GPPlCOHqky4RkQRtKNIn
oYGopIGlMIGiMQswCQYDVQQGEwJVUzELMAkGA1UECBMCQ0ExFTATBgNVBAcTDFNh
bkZyYW5jaXNjbzEVMBMGA1UEChMMRm9ydC1GdW5zdG9uMREwDwYDVQQLEwh0ZXN0
VW5pdDENMAsGA1UEAxMEdGVzdDEQMA4GA1UEKRMHRWFzeVJTQTEkMCIGCSqGSIb3
DQEJARYVd2FuZ2d1YW56enpAZ21haWwuY29tggkAtFrABOnMagIwEwYDVR0lBAww
CgYIKwYBBQUHAwEwCwYDVR0PBAQDAgWgMA0GCSqGSIb3DQEBBQUAA4ICAQB+uCDx
eU2i6inMhhgDWgfQQabRCP/FY6mgL9XX2WIt7Y1FZxJh8RUs6z/SxZjjLm90Wx0Z
9G1hzGIn/bFIkdtMpLisHJJIs5f0kSvdvesf1OqgQmU0qwstoRCvRZcUWns/fqqG
vjvDeJp9/Or2cFb2RAAmznPdtNWoK08MiUz+YOcVoD/NGBh7KCRzxJa3QuzcilV6
rE5A/XkXb+LBoG45FAoUflDux396hOFbBhcrwvX3UW2y9samclh2ikFO6CaO1vYL
FFEEGRmVOOkkU4z7ZzgKS2ww/Sc7YSfFjeSQt3jOy138gk1esjRLCf/uAFldqMh/
Q+W3M6v2Jka9v7jGjO49KUVnSdf1T++fwAQoMJULGw0laQfADamnK6rDC7bJRVCu
P8sg0/GLUMdXuSmp3HQJyv5xq6OM9upbTEt9GVv1RNjlBIXph572kxjLKBq9n9LQ
Hyormdu82rNj+PbmY7ZsCkyFB4T+JDCBatPmxdqg6JPgAgP0n6YCzzAP4qZwH6x0
McC0EmnlVDFFMzxoR58m2epIWzQPBjCs9dE6PVQ6Nu5TJxYj1kYXqRRBsZvt9BDL
zN1Zsve1gP+D2mIVggdj2XO8YI89FQBCpprC/Y9nDGlCJyZJDNav19aVIM/yaPpQ
1W0DkKRKP/IDo4FLXe5DEWC8ta7eaBtFkjdq3A==
-----END CERTIFICATE-----
